target datalayout = "e-m:e-p270:32:32-p271:32:32-p272:64:64-i64:64-i128:128-f80:128-n8:16:32:64-S128"
target triple = "x86_64-pc-linux-gnu"

%"class.cv::bioinspired::BasicRetinaFilter" = type { %"class.cv::bioinspired::TemplateBuffer", %"class.std::valarray", i32, i32, %"class.std::valarray", %"class.std::valarray", %"class.std::valarray", float, float, float, float, float, float, float, float }
%"class.cv::bioinspired::TemplateBuffer" = type { ptr, %"class.std::valarray", i64, i64, i64, i64, i64 }
%"class.std::valarray" = type { i64, ptr }
%"class.cv::Range" = type { i32, i32 }
%"class.cv::bioinspired::BasicRetinaFilter::Parallel_localAdaptation" = type <{ %"class.cv::ParallelLoopBody", ptr, ptr, ptr, float, float, float, [4 x i8] }>
%"class.cv::ParallelLoopBody" = type { ptr }

@_ZTVN2cv16ParallelLoopBodyE = available_externally unnamed_addr constant { [5 x ptr] } { [5 x ptr] [ptr null, ptr @_ZTIN2cv16ParallelLoopBodyE, ptr @_ZN2cv16ParallelLoopBodyD1Ev, ptr @_ZN2cv16ParallelLoopBodyD0Ev, ptr @__cxa_pure_virtual] }, align 8

; Function Attrs: inlinehint mustprogress nounwind uwtable
define linkonce_odr hidden void @_ZN2cv16ParallelLoopBodyC2Ev(ptr noundef nonnull align 8 dereferenceable(8) %0) unnamed_addr #6 comdat align 2 {
  %2 = alloca ptr, align 8
  store ptr %0, ptr %2, align 8, !tbaa !144
  %3 = load ptr, ptr %2, align 8
  store ptr getelementptr inbounds inrange(-16, 24) ({ [5 x ptr] }, ptr @_ZTVN2cv16ParallelLoopBodyE, i32 0, i32 0, i32 2), ptr %3, align 8, !tbaa !27
  ret void
}

; Function Attrs: mustprogress nounwind uwtable
define linkonce_odr hidden void @_ZN2cv11bioinspired17BasicRetinaFilter24Parallel_localAdaptationC2EPKfS4_Pffff(ptr noundef nonnull align 8 dereferenceable(44) %0, ptr noundef %1, ptr noundef %2, ptr noundef %3, float noundef %4, float noundef %5, float noundef %6) unnamed_addr #7 comdat align 2 {
  %8 = alloca ptr, align 8
  %9 = alloca ptr, align 8
  %10 = alloca ptr, align 8
  %11 = alloca ptr, align 8
  %12 = alloca float, align 4
  %13 = alloca float, align 4
  %14 = alloca float, align 4
  store ptr %0, ptr %8, align 8, !tbaa !61
  store ptr %1, ptr %9, align 8, !tbaa !49
  store ptr %2, ptr %10, align 8, !tbaa !49
  store ptr %3, ptr %11, align 8, !tbaa !49
  store float %4, ptr %12, align 4, !tbaa !26
  store float %5, ptr %13, align 4, !tbaa !26
  store float %6, ptr %14, align 4, !tbaa !26
  %15 = load ptr, ptr %8, align 8
  call void @_ZN2cv16ParallelLoopBodyC2Ev(ptr noundef nonnull align 8 dereferenceable(8) %15) #3
  store ptr getelementptr inbounds inrange(-16, 24) ({ [5 x ptr] }, ptr @_ZTVN2cv11bioinspired17BasicRetinaFilter24Parallel_localAdaptationE, i32 0, i32 0, i32 2), ptr %15, align 8, !tbaa !27
  %16 = getelementptr inbounds nuw %"class.cv::bioinspired::BasicRetinaFilter::Parallel_localAdaptation", ptr %15, i32 0, i32 1
  %17 = load ptr, ptr %9, align 8, !tbaa !49
  store ptr %17, ptr %16, align 8, !tbaa !63
  %18 = getelementptr inbounds nuw %"class.cv::bioinspired::BasicRetinaFilter::Parallel_localAdaptation", ptr %15, i32 0, i32 2
  %19 = load ptr, ptr %10, align 8, !tbaa !49
  store ptr %19, ptr %18, align 8, !tbaa !66
  %20 = getelementptr inbounds nuw %"class.cv::bioinspired::BasicRetinaFilter::Parallel_localAdaptation", ptr %15, i32 0, i32 3
  %21 = load ptr, ptr %11, align 8, !tbaa !49
  store ptr %21, ptr %20, align 8, !tbaa !67
  %22 = getelementptr inbounds nuw %"class.cv::bioinspired::BasicRetinaFilter::Parallel_localAdaptation", ptr %15, i32 0, i32 4
  %23 = load float, ptr %12, align 4, !tbaa !26
  store float %23, ptr %22, align 8, !tbaa !68
  %24 = getelementptr inbounds nuw %"class.cv::bioinspired::BasicRetinaFilter::Parallel_localAdaptation", ptr %15, i32 0, i32 5
  %25 = load float, ptr %13, align 4, !tbaa !26
  store float %25, ptr %24, align 4, !tbaa !69
  %26 = getelementptr inbounds nuw %"class.cv::bioinspired::BasicRetinaFilter::Parallel_localAdaptation", ptr %15, i32 0, i32 6
  %27 = load float, ptr %14, align 4, !tbaa !26
  store float %27, ptr %26, align 8, !tbaa !70
  ret void
}

; Function Attrs: inlinehint mustprogress nounwind uwtable
define linkonce_odr hidden void @_ZN2cv5RangeC2Eii(ptr noundef nonnull align 4 dereferenceable(8) %0, i32 noundef %1, i32 noundef %2) unnamed_addr #6 comdat align 2 {
  %4 = alloca ptr, align 8
  %5 = alloca i32, align 4
  %6 = alloca i32, align 4
  store ptr %0, ptr %4, align 8, !tbaa !56
  store i32 %1, ptr %5, align 4, !tbaa !8
  store i32 %2, ptr %6, align 4, !tbaa !8
  %7 = load ptr, ptr %4, align 8
  %8 = getelementptr inbounds nuw %"class.cv::Range", ptr %7, i32 0, i32 0
  %9 = load i32, ptr %5, align 4, !tbaa !8
  store i32 %9, ptr %8, align 4, !tbaa !58
  %10 = getelementptr inbounds nuw %"class.cv::Range", ptr %7, i32 0, i32 1
  %11 = load i32, ptr %6, align 4, !tbaa !8
  store i32 %11, ptr %10, align 4, !tbaa !60
  ret void
}

; Function Attrs: inlinehint mustprogress nounwind uwtable
define linkonce_odr hidden void @_ZN2cv11bioinspired17BasicRetinaFilter26updateCompressionParameterEf(ptr noundef nonnull align 8 dereferenceable(168) %0, float noundef %1) #6 comdat align 2 {
  %3 = alloca ptr, align 8
  %4 = alloca float, align 4
  store ptr %0, ptr %3, align 8, !tbaa !3
  store float %1, ptr %4, align 4, !tbaa !26
  %5 = load ptr, ptr %3, align 8
  %6 = getelementptr inbounds nuw %"class.cv::bioinspired::BasicRetinaFilter", ptr %5, i32 0, i32 10
  store float 1.000000e+00, ptr %6, align 4, !tbaa !51
  %7 = load float, ptr %4, align 4, !tbaa !26
  %8 = getelementptr inbounds nuw %"class.cv::bioinspired::BasicRetinaFilter", ptr %5, i32 0, i32 7
  %9 = load float, ptr %8, align 8, !tbaa !55
  %10 = fmul float %7, %9
  %11 = getelementptr inbounds nuw %"class.cv::bioinspired::BasicRetinaFilter", ptr %5, i32 0, i32 11
  store float %10, ptr %11, align 8, !tbaa !52
  ret void
}

; Function Attrs: inlinehint mustprogress nounwind uwtable
define linkonce_odr hidden noundef i32 @_ZN2cv11bioinspired14TemplateBufferIfE11getNBpixelsEv(ptr noundef nonnull align 8 dereferenceable(64) %0) #6 comdat align 2 {
  %2 = alloca ptr, align 8
  store ptr %0, ptr %2, align 8, !tbaa !23
  %3 = load ptr, ptr %2, align 8
  %4 = getelementptr inbounds nuw %"class.cv::bioinspired::TemplateBuffer", ptr %3, i32 0, i32 5
  %5 = load i64, ptr %4, align 8, !tbaa !32
  %6 = trunc i64 %5 to i32
  ret i32 %6
}

; Function Attrs: mustprogress uwtable
define hidden void @_ZN2cv11bioinspired17BasicRetinaFilter25_localLuminanceAdaptationEPKfS3_Pfb(ptr noundef nonnull align 8 dereferenceable(168) %0, ptr noundef %1, ptr noundef %2, ptr noundef %3, i1 noundef zeroext %4) #4 align 2 personality ptr @__gxx_personality_v0 {
  %6 = alloca ptr, align 8
  %7 = alloca ptr, align 8
  %8 = alloca ptr, align 8
  %9 = alloca ptr, align 8
  %10 = alloca i8, align 1
  %11 = alloca float, align 4
  %12 = alloca ptr, align 8
  %13 = alloca i32, align 4
  %14 = alloca %"class.cv::Range", align 4
  %15 = alloca %"class.cv::bioinspired::BasicRetinaFilter::Parallel_localAdaptation", align 8
  %16 = alloca ptr, align 8
  %17 = alloca i32, align 4
  store ptr %0, ptr %6, align 8, !tbaa !3
  store ptr %1, ptr %7, align 8, !tbaa !49
  store ptr %2, ptr %8, align 8, !tbaa !49
  store ptr %3, ptr %9, align 8, !tbaa !49
  %18 = zext i1 %4 to i8
  store i8 %18, ptr %10, align 1, !tbaa !10
  %19 = load ptr, ptr %6, align 8
  %20 = load i8, ptr %10, align 1, !tbaa !10, !range !20, !noundef !21
  %21 = trunc i8 %20 to i1
  br i1 %21, label %22, label %46

22:                                               ; preds = %5
  call void @llvm.lifetime.start.p0(i64 4, ptr %11) #3
  store float 0.000000e+00, ptr %11, align 4, !tbaa !26
  call void @llvm.lifetime.start.p0(i64 8, ptr %12) #3
  %23 = load ptr, ptr %7, align 8, !tbaa !49
  store ptr %23, ptr %12, align 8, !tbaa !49
  call void @llvm.lifetime.start.p0(i64 4, ptr %13) #3
  store i32 0, ptr %13, align 4, !tbaa !8
  br label %24

24:                                               ; preds = %36, %22
  %25 = load i32, ptr %13, align 4, !tbaa !8
  %26 = getelementptr inbounds nuw %"class.cv::bioinspired::BasicRetinaFilter", ptr %19, i32 0, i32 0
  %27 = call noundef i32 @_ZN2cv11bioinspired14TemplateBufferIfE11getNBpixelsEv(ptr noundef nonnull align 8 dereferenceable(64) %26)
  %28 = icmp ult i32 %25, %27
  br i1 %28, label %30, label %29

29:                                               ; preds = %24
  call void @llvm.lifetime.end.p0(i64 4, ptr %13) #3
  br label %39

30:                                               ; preds = %24
  %31 = load ptr, ptr %12, align 8, !tbaa !49
  %32 = getelementptr inbounds nuw float, ptr %31, i32 1
  store ptr %32, ptr %12, align 8, !tbaa !49
  %33 = load float, ptr %31, align 4, !tbaa !26
  %34 = load float, ptr %11, align 4, !tbaa !26
  %35 = fadd float %34, %33
  store float %35, ptr %11, align 4, !tbaa !26
  br label %36

36:                                               ; preds = %30
  %37 = load i32, ptr %13, align 4, !tbaa !8
  %38 = add i32 %37, 1
  store i32 %38, ptr %13, align 4, !tbaa !8
  br label %24, !llvm.loop !50

39:                                               ; preds = %29
  %40 = getelementptr inbounds nuw %"class.cv::bioinspired::BasicRetinaFilter", ptr %19, i32 0, i32 0
  %41 = call noundef i32 @_ZN2cv11bioinspired14TemplateBufferIfE11getNBpixelsEv(ptr noundef nonnull align 8 dereferenceable(64) %40)
  %42 = uitofp i32 %41 to float
  %43 = load float, ptr %11, align 4, !tbaa !26
  %44 = fdiv float %43, %42
  store float %44, ptr %11, align 4, !tbaa !26
  %45 = load float, ptr %11, align 4, !tbaa !26
  call void @_ZN2cv11bioinspired17BasicRetinaFilter26updateCompressionParameterEf(ptr noundef nonnull align 8 dereferenceable(168) %19, float noundef %45)
  call void @llvm.lifetime.end.p0(i64 8, ptr %12) #3
  call void @llvm.lifetime.end.p0(i64 4, ptr %11) #3
  br label %46

46:                                               ; preds = %39, %5
  call void @llvm.lifetime.start.p0(i64 8, ptr %14) #3
  %47 = getelementptr inbounds nuw %"class.cv::bioinspired::BasicRetinaFilter", ptr %19, i32 0, i32 0
  %48 = call noundef i32 @_ZN2cv11bioinspired14TemplateBufferIfE11getNBpixelsEv(ptr noundef nonnull align 8 dereferenceable(64) %47)
  call void @_ZN2cv5RangeC2Eii(ptr noundef nonnull align 4 dereferenceable(8) %14, i32 noundef 0, i32 noundef %48)
  call void @llvm.lifetime.start.p0(i64 48, ptr %15) #3
  %49 = load ptr, ptr %8, align 8, !tbaa !49
  %50 = load ptr, ptr %7, align 8, !tbaa !49
  %51 = load ptr, ptr %9, align 8, !tbaa !49
  %52 = getelementptr inbounds nuw %"class.cv::bioinspired::BasicRetinaFilter", ptr %19, i32 0, i32 10
  %53 = load float, ptr %52, align 4, !tbaa !51
  %54 = getelementptr inbounds nuw %"class.cv::bioinspired::BasicRetinaFilter", ptr %19, i32 0, i32 11
  %55 = load float, ptr %54, align 8, !tbaa !52
  %56 = getelementptr inbounds nuw %"class.cv::bioinspired::BasicRetinaFilter", ptr %19, i32 0, i32 8
  %57 = load float, ptr %56, align 4, !tbaa !22
  call void @_ZN2cv11bioinspired17BasicRetinaFilter24Parallel_localAdaptationC2EPKfS4_Pffff(ptr noundef nonnull align 8 dereferenceable(44) %15, ptr noundef %49, ptr noundef %50, ptr noundef %51, float noundef %53, float noundef %55, float noundef %57)
  invoke void @_ZN2cv13parallel_for_ERKNS_5RangeERKNS_16ParallelLoopBodyEd(ptr noundef nonnull align 4 dereferenceable(8) %14, ptr noundef nonnull align 8 dereferenceable(8) %15, double noundef -1.000000e+00)
          to label %58 unwind label %59

58:                                               ; preds = %46
  call void @_ZN2cv16ParallelLoopBodyD2Ev(ptr noundef nonnull align 8 dereferenceable(44) %15) #3
  call void @llvm.lifetime.end.p0(i64 48, ptr %15) #3
  call void @llvm.lifetime.end.p0(i64 8, ptr %14) #3
  ret void

59:                                               ; preds = %46
  %60 = landingpad { ptr, i32 }
          cleanup
  %61 = extractvalue { ptr, i32 } %60, 0
  store ptr %61, ptr %16, align 8
  %62 = extractvalue { ptr, i32 } %60, 1
  store i32 %62, ptr %17, align 4
  call void @_ZN2cv16ParallelLoopBodyD2Ev(ptr noundef nonnull align 8 dereferenceable(44) %15) #3
  call void @llvm.lifetime.end.p0(i64 48, ptr %15) #3
  call void @llvm.lifetime.end.p0(i64 8, ptr %14) #3
  br label %63

63:                                               ; preds = %59
  %64 = load ptr, ptr %16, align 8
  %65 = load i32, ptr %17, align 4
  %66 = insertvalue { ptr, i32 } poison, ptr %64, 0
  %67 = insertvalue { ptr, i32 } %66, i32 %65, 1
  resume { ptr, i32 } %67
}