; Function Attrs: mustprogress uwtable
define hidden void @_ZN2cv11bioinspired17BasicRetinaFilter25_localLuminanceAdaptationEPKfS3_Pfb(ptr noundef nonnull align 8 captures(none) dereferenceable(168) %0, ptr noundef %1, ptr noundef %2, ptr noundef %3, i1 noundef zeroext %4) local_unnamed_addr #3 align 2 personality ptr @__gxx_personality_v0 {
  %6 = alloca %"class.cv::Range", align 4
  %7 = alloca %"class.cv::bioinspired::BasicRetinaFilter::Parallel_localAdaptation", align 8
  %8 = getelementptr inbounds nuw i8, ptr %0, i64 48
  %9 = load i64, ptr %8, align 8, !tbaa !19
  br i1 %4, label %.preheader, label %._crit_edge19

._crit_edge19:                                    ; preds = %5
  %.phi.trans.insert20 = getelementptr inbounds nuw i8, ptr %0, i64 148
  %.pre21 = load float, ptr %.phi.trans.insert20, align 4, !tbaa !68
  %.phi.trans.insert22 = getelementptr inbounds nuw i8, ptr %0, i64 152
  %.pre23 = load float, ptr %.phi.trans.insert22, align 8, !tbaa !70
  %.pre24 = trunc i64 %9 to i32
  br label %22

.preheader:                                       ; preds = %5
  %10 = trunc i64 %9 to i32
  %.not = icmp eq i32 %10, 0
  br i1 %.not, label %._crit_edge, label %.lr.ph

._crit_edge:                                      ; preds = %.lr.ph, %.preheader
  %.0.lcssa = phi float [ 0.000000e+00, %.preheader ], [ %20, %.lr.ph ]
  %11 = uitofp i32 %10 to float
  %12 = fdiv float %.0.lcssa, %11
  %13 = getelementptr inbounds nuw i8, ptr %0, i64 148
  store float 1.000000e+00, ptr %13, align 4, !tbaa !68
  %14 = getelementptr inbounds nuw i8, ptr %0, i64 136
  %15 = load float, ptr %14, align 8, !tbaa !69
  %16 = fmul float %12, %15
  %17 = getelementptr inbounds nuw i8, ptr %0, i64 152
  store float %16, ptr %17, align 8, !tbaa !70
  br label %22

.lr.ph:                                           ; preds = %.preheader, %.lr.ph
  %.017 = phi float [ %20, %.lr.ph ], [ 0.000000e+00, %.preheader ]
  %.01316 = phi ptr [ %18, %.lr.ph ], [ %1, %.preheader ]
  %.01415 = phi i32 [ %21, %.lr.ph ], [ 0, %.preheader ]
  %18 = getelementptr inbounds nuw i8, ptr %.01316, i64 4
  %19 = load float, ptr %.01316, align 4, !tbaa !11
  %20 = fadd float %.017, %19
  %21 = add nuw i32 %.01415, 1
  %exitcond.not = icmp eq i32 %21, %10
  br i1 %exitcond.not, label %._crit_edge, label %.lr.ph, !llvm.loop !82

22:                                               ; preds = %._crit_edge19, %._crit_edge
  %.pre-phi = phi i32 [ %.pre24, %._crit_edge19 ], [ %10, %._crit_edge ]
  %23 = phi float [ %.pre23, %._crit_edge19 ], [ %16, %._crit_edge ]
  %24 = phi float [ %.pre21, %._crit_edge19 ], [ 1.000000e+00, %._crit_edge ]
  call void @llvm.lifetime.start.p0(i64 8, ptr nonnull %6) #19
  store i32 0, ptr %6, align 4, !tbaa !71
  %25 = getelementptr inbounds nuw i8, ptr %6, i64 4
  store i32 %.pre-phi, ptr %25, align 4, !tbaa !73
  call void @llvm.lifetime.start.p0(i64 48, ptr nonnull %7) #19
  %26 = getelementptr inbounds nuw i8, ptr %0, i64 140
  %27 = load float, ptr %26, align 4, !tbaa !25
  store ptr getelementptr inbounds nuw inrange(-16, 24) (i8, ptr @_ZTVN2cv11bioinspired17BasicRetinaFilter24Parallel_localAdaptationE, i64 16), ptr %7, align 8, !tbaa !13
  %28 = getelementptr inbounds nuw i8, ptr %7, i64 8
  store ptr %2, ptr %28, align 8, !tbaa !74
  %29 = getelementptr inbounds nuw i8, ptr %7, i64 16
  store ptr %1, ptr %29, align 8, !tbaa !77
  %30 = getelementptr inbounds nuw i8, ptr %7, i64 24
  store ptr %3, ptr %30, align 8, !tbaa !78
  %31 = getelementptr inbounds nuw i8, ptr %7, i64 32
  store float %24, ptr %31, align 8, !tbaa !79
  %32 = getelementptr inbounds nuw i8, ptr %7, i64 36
  store float %23, ptr %32, align 4, !tbaa !80
  %33 = getelementptr inbounds nuw i8, ptr %7, i64 40
  store float %27, ptr %33, align 8, !tbaa !81
  invoke void @_ZN2cv13parallel_for_ERKNS_5RangeERKNS_16ParallelLoopBodyEd(ptr noundef nonnull align 4 dereferenceable(8) %6, ptr noundef nonnull align 8 dereferenceable(8) %7, double noundef -1.000000e+00)
          to label %34 unwind label %35

34:                                               ; preds = %22
  call void @_ZN2cv16ParallelLoopBodyD2Ev(ptr noundef nonnull align 8 dereferenceable(44) %7) #19
  call void @llvm.lifetime.end.p0(i64 48, ptr nonnull %7) #19
  call void @llvm.lifetime.end.p0(i64 8, ptr nonnull %6) #19
  ret void

35:                                               ; preds = %22
  %36 = landingpad { ptr, i32 }
          cleanup
  call void @_ZN2cv16ParallelLoopBodyD2Ev(ptr noundef nonnull align 8 dereferenceable(44) %7) #19
  call void @llvm.lifetime.end.p0(i64 48, ptr nonnull %7) #19
  call void @llvm.lifetime.end.p0(i64 8, ptr nonnull %6) #19
  resume { ptr, i32 } %36
}